; Function Attrs: mustprogress nounwind uwtable
define hidden noundef ptr @_ZN15StoreVectorNode4makeEiP4NodeS1_S1_PK7TypePtrS1_j(i32 noundef %0, ptr noundef %1, ptr noundef %2, ptr noundef %3, ptr nocapture noundef readnone %4, ptr noundef %5, i32 noundef %6) local_unnamed_addr #1 align 2 {
  %8 = tail call align 8 ptr @llvm.threadlocal.address.p0(ptr align 8 @_ZN6Thread12_thr_currentE)
  %9 = load ptr, ptr %8, align 8
  %10 = getelementptr inbounds i8, ptr %9, i64 1808
  %11 = load ptr, ptr %10, align 8
  %12 = getelementptr inbounds i8, ptr %11, i64 128
  %13 = load ptr, ptr %12, align 8
  %14 = getelementptr inbounds i8, ptr %13, i64 728
  %15 = load ptr, ptr %14, align 8
  %16 = getelementptr inbounds i8, ptr %15, i64 40
  %17 = load ptr, ptr %16, align 8
  %18 = getelementptr inbounds i8, ptr %15, i64 32
  %19 = load ptr, ptr %18, align 8
  %20 = ptrtoint ptr %17 to i64
  %21 = ptrtoint ptr %19 to i64
  %22 = sub i64 %20, %21
  %.not.i.i.i = icmp ult i64 %22, 72
  br i1 %.not.i.i.i, label %25, label %23

23:                                               ; preds = %7
  %24 = getelementptr inbounds i8, ptr %19, i64 72
  store ptr %24, ptr %18, align 8
  br label %_ZN4NodenwEm.exit

25:                                               ; preds = %7
  %26 = tail call noundef ptr @_ZN5Arena4growEmN17AllocFailStrategy13AllocFailEnumE(ptr noundef nonnull align 8 dereferenceable(48) %15, i64 noundef 72, i32 noundef 0) #8
  br label %_ZN4NodenwEm.exit

_ZN4NodenwEm.exit:                                ; preds = %23, %25
  %.0.i.i.i = phi ptr [ %19, %23 ], [ %26, %25 ]
  %27 = icmp eq ptr %.0.i.i.i, null
  br i1 %27, label %38, label %28

28:                                               ; preds = %_ZN4NodenwEm.exit
  tail call void @_ZN4NodeC2EPS_S0_S0_S0_(ptr noundef nonnull align 8 dereferenceable(52) %.0.i.i.i, ptr noundef %1, ptr noundef %2, ptr noundef %3, ptr noundef %5) #8
  %29 = getelementptr inbounds i8, ptr %.0.i.i.i, i64 52
  %30 = getelementptr inbounds i8, ptr %.0.i.i.i, i64 44
  store i32 0, ptr %29, align 4
  %31 = getelementptr inbounds i8, ptr %.0.i.i.i, i64 56
  store i32 0, ptr %31, align 8
  store i32 80, ptr %30, align 4
  store ptr getelementptr inbounds inrange(-16, 240) (i8, ptr @_ZTV15StoreVectorNode, i64 16), ptr %.0.i.i.i, align 8
  %32 = getelementptr inbounds i8, ptr %.0.i.i.i, i64 64
  %33 = load ptr, ptr %5, align 8
  %34 = getelementptr inbounds i8, ptr %33, i64 40
  %35 = load ptr, ptr %34, align 8
  %36 = tail call noundef ptr %35(ptr noundef nonnull align 8 dereferenceable(52) %5) #8
  store ptr %36, ptr %32, align 8
  store i32 208, ptr %30, align 4
  %37 = getelementptr inbounds i8, ptr %.0.i.i.i, i64 53
  store i8 1, ptr %37, align 1
  br label %38

38:                                               ; preds = %28, %_ZN4NodenwEm.exit
  ret ptr %.0.i.i.i
}